(dp0
S'rating'
p1
(lp2
S'rating'
p3
asS'selection'
p4
(lp5
S'selection'
p6
asS'location'
p7
(lp8
S'location'
p9
asS'office'
p10
(lp11
S'office'
p12
asS'podiums'
p13
(lp14
S'podiums'
p15
asS'rankingWins'
p16
(lp17
S'ranking'
p18
aS'wins'
p19
asS'portrayer'
p20
(lp21
S'portrayer'
p22
asS'vicePresident'
p23
(lp24
S'vice'
p25
aS'president'
p26
asS'bodyDiscovered'
p27
(lp28
S'body'
p29
aS'discovered'
p30
asS'waistSize'
p31
(lp32
S'waist'
p33
aS'size'
p34
asS'coach'
p35
(lp36
S'coach'
p37
asS'relation'
p38
(lp39
S'relation'
p40
asS'almaMater'
p41
(lp42
S'alma'
p43
aS'mater'
p44
asS'committee'
p45
(lp46
S'committee'
p47
asS'mythology'
p48
(lp49
S'mythology'
p50
asS'battle'
p51
(lp52
S'battle'
p53
asS'portfolio'
p54
(lp55
S'portfolio'
p56
asS'canonizedPlace'
p57
(lp58
S'canonized'
p59
aS'place'
p60
asS'spike'
p61
(lp62
S'spike'
p63
asS'occupation'
p64
(lp65
S'occupation'
p66
asS'discipline'
p67
(lp68
S'discipline'
p69
asS'opponent'
p70
(lp71
S'opponent'
p72
asS'position'
p73
(lp74
S'position'
p75
asS'feastDay'
p76
(lp77
S'feast'
p78
aS'day'
p79
asS'title'
p80
(lp81
S'title'
p82
asS'raceHorse'
p83
(lp84
S'race'
p85
aS'horse'
p86
asS'knownFor'
p87
(lp88
S'known'
p89
aS'for'
p90
asS'employer'
p91
(lp92
S'employer'
p93
asS'debutTeam'
p94
(lp95
S'debut'
p96
aS'team'
p97
asS'birthYear'
p98
(lp99
S'birth'
p100
aS'year'
p101
asS'voiceType'
p102
(lp103
S'voice'
p104
aS'type'
p105
asS'undraftedYear'
p106
(lp107
S'undrafted'
p108
aS'year'
p109
asS'board'
p110
(lp111
S'board'
p112
asS'firstAppearance'
p113
(lp114
S'first'
p115
aS'appearance'
p116
asS'bustSize'
p117
(lp118
S'bust'
p119
aS'size'
p120
asS'predecessor'
p121
(lp122
S'predecessor'
p123
asS'significantBuilding'
p124
(lp125
S'significant'
p126
aS'building'
p127
asS'year'
p128
(lp129
S'year'
p130
asS'electionDate'
p131
(lp132
S'election'
p133
aS'date'
p134
asS'chancellor'
p135
(lp136
S'chancellor'
p137
asS'otherParty'
p138
(lp139
S'other'
p140
aS'party'
p141
asS'allegiance'
p142
(lp143
S'allegiance'
p144
asS'notableStudent'
p145
(lp146
S'notable'
p147
aS'student'
p148
asS'background'
p149
(lp150
S'background'
p151
asS'monarch'
p152
(lp153
S'monarch'
p154
asS'philosophicalSchool'
p155
(lp156
S'philosophical'
p157
aS'school'
p158
asS'draftRound'
p159
(lp160
S'draft'
p161
aS'round'
p162
asS'hipSize'
p163
(lp164
S'hip'
p165
aS'size'
p166
asS'highestBreak'
p167
(lp168
S'highest'
p169
aS'break'
p170
asS'managerClub'
p171
(lp172
S'manager'
p173
aS'club'
p174
asS'successor'
p175
(lp176
S'successor'
p177
asS'statisticYear'
p178
(lp179
S'statistic'
p180
aS'year'
p181
asS'school'
p182
(lp183
S'school'
p184
asS'lastAppearance'
p185
(lp186
S'last'
p187
aS'appearance'
p188
asS'gender'
p189
(lp190
S'gender'
p191
asS'races'
p192
(lp193
S'races'
p194
asS'debut'
p195
(lp196
S'debut'
p197
asS'race'
p198
(lp199
S'race'
p200
asS'formerCoach'
p201
(lp202
S'former'
p203
aS'coach'
p204
asS'team'
p205
(lp206
S'team'
p207
asS'statisticValue'
p208
(lp209
S'statistic'
p210
aS'value'
p211
asS'formerTeam'
p212
(lp213
S'former'
p214
aS'team'
p215
asS'movement'
p216
(lp217
S'movement'
p218
asS'university'
p219
(lp220
S'university'
p221
asS'status'
p222
(lp223
S'status'
p224
asS'weight'
p225
(lp226
S'weight'
p227
asS'creator'
p228
(lp229
S'creator'
p230
asS'series'
p231
(lp232
S'series'
p233
asS'networth'
p234
(lp235
S'networth'
p236
asS'overallRecord'
p237
(lp238
S'overall'
p239
aS'record'
p240
asS'relative'
p241
(lp242
S'relative'
p243
asS'college'
p244
(lp245
S'college'
p246
asS'governor'
p247
(lp248
S'governor'
p249
asS'televisionSeries'
p250
(lp251
S'television'
p252
aS'series'
p253
asS'doctoralStudent'
p254
(lp255
S'doctoral'
p256
aS'student'
p257
asS'seniority'
p258
(lp259
S'seniority'
p260
asS'sport'
p261
(lp262
S'sport'
p263
asS'event'
p264
(lp265
S'event'
p266
asS'gross'
p267
(lp268
S'gross'
p269
asS'formerHighschool'
p270
(lp271
S'former'
p272
aS'highschool'
p273
asS'plays'
p274
(lp275
S'plays'
p276
asS'beatifiedBy'
p277
(lp278
S'beatified'
p279
aS'by'
p280
asS'coachingRecord'
p281
(lp282
S'coaching'
p283
aS'record'
p284
asS'nationalTeam'
p285
(lp286
S'national'
p287
aS'team'
p288
asS'highestRank'
p289
(lp290
S'highest'
p291
aS'rank'
p292
asS'statisticLabel'
p293
(lp294
S'statistic'
p295
aS'label'
p296
asS'religion'
p297
(lp298
S'religion'
p299
asS'poles'
p300
(lp301
S'poles'
p302
asS'tournamentRecord'
p303
(lp304
S'tournament'
p305
aS'record'
p306
asS'battingSide'
p307
(lp308
S'batting'
p309
aS'side'
p310
asS'thumbnail'
p311
(lp312
S'thumbnail'
p313
asS'careerStation'
p314
(lp315
S'career'
p316
aS'station'
p317
asS'parent'
p318
(lp319
S'parent'
p320
asS'associate'
p321
(lp322
S'associate'
p323
asS'draftTeam'
p324
(lp325
S'draft'
p326
aS'team'
p327
asS'shoeSize'
p328
(lp329
S'shoe'
p330
aS'size'
p331
asS'birthName'
p332
(lp333
S'birth'
p334
aS'name'
p335
asS'eyeColor'
p336
(lp337
S'eye'
p338
aS'color'
p339
asS'lieutenant'
p340
(lp341
S'lieutenant'
p342
asS'mainInterest'
p343
(lp344
S'main'
p345
aS'interest'
p346
asS'fastestLap'
p347
(lp348
S'fastest'
p349
aS'lap'
p350
asS'genre'
p351
(lp352
S'genre'
p353
asS'nationality'
p354
(lp355
S'nationality'
p356
asS'espnId'
p357
(lp358
S'espn'
p359
aS'id'
p360
asS'sportCountry'
p361
(lp362
S'sport'
p363
aS'country'
p364
asS'otherWins'
p365
(lp366
S'other'
p367
aS'wins'
p368
asS'coachedTeam'
p369
(lp370
S'coached'
p371
aS'team'
p372
asS'soundRecording'
p373
(lp374
S'sound'
p375
aS'recording'
p376
asS'league'
p377
(lp378
S'league'
p379
asS'training'
p380
(lp381
S'training'
p382
asS'whaDraft'
p383
(lp384
S'wha'
p385
aS'draft'
p386
asS'beatifiedPlace'
p387
(lp388
S'beatified'
p389
aS'place'
p390
asS'bowlRecord'
p391
(lp392
S'bowl'
p393
aS'record'
p394
asS'language'
p395
(lp396
S'language'
p397
asS'deathPlace'
p398
(lp399
S'death'
p400
aS'place'
p401
asS'residence'
p402
(lp403
S'residence'
p404
asS'region'
p405
(lp406
S'region'
p407
asS'draftPick'
p408
(lp409
S'draft'
p410
aS'pick'
p411
asS'lastPosition'
p412
(lp413
S'last'
p414
aS'position'
p415
asS'governorGeneral'
p416
(lp417
S'governor'
p418
aS'general'
p419
asS'signature'
p420
(lp421
S'signature'
p422
asS'firstRace'
p423
(lp424
S'first'
p425
aS'race'
p426
asS'currentMember'
p427
(lp428
S'current'
p429
aS'member'
p430
asS'block'
p431
(lp432
S'block'
p433
asS'lastRace'
p434
(lp435
S'last'
p436
aS'race'
p437
asS'trainer'
p438
(lp439
S'trainer'
p440
asS'recordLabel'
p441
(lp442
S'record'
p443
aS'label'
p444
asS'deputy'
p445
(lp446
S'deputy'
p447
asS'mbaId'
p448
(lp449
S'mba'
p450
aS'id'
p451
asS'hometown'
p452
(lp453
S'hometown'
p454
asS'profession'
p455
(lp456
S'profession'
p457
asS'number'
p458
(lp459
S'number'
p460
asS'birthDate'
p461
(lp462
S'birth'
p463
aS'date'
p464
asS'height'
p465
(lp466
S'height'
p467
asS'hairColor'
p468
(lp469
S'hair'
p470
aS'color'
p471
asS'militaryBranch'
p472
(lp473
S'military'
p474
aS'branch'
p475
asS'shoots'
p476
(lp477
S'shoots'
p478
asS'termPeriod'
p479
(lp480
S'term'
p481
aS'period'
p482
asS'runningMate'
p483
(lp484
S'running'
p485
aS'mate'
p486
asS'deathCause'
p487
(lp488
S'death'
p489
aS'cause'
p490
asS'spouse'
p491
(lp492
S'spouse'
p493
asS'choreographer'
p494
(lp495
S'choreographer'
p496
asS'instrument'
p497
(lp498
S'instrument'
p499
asS'shoeNumber'
p500
(lp501
S'shoe'
p502
aS'number'
p503
asS'serviceNumber'
p504
(lp505
S'service'
p506
aS'number'
p507
asS'currentPartner'
p508
(lp509
S'current'
p510
aS'partner'
p511
asS'activeYears'
p512
(lp513
S'active'
p514
aS'years'
p515
asS'ulanId'
p516
(lp517
S'ulan'
p518
aS'id'
p519
asS'draft'
p520
(lp521
S'draft'
p522
asS'formerChoreographer'
p523
(lp524
S'former'
p525
aS'choreographer'
p526
asS'canonizedBy'
p527
(lp528
S'canonized'
p529
aS'by'
p530
asS'influencedBy'
p531
(lp532
S'influenced'
p533
aS'by'
p534
asS'taoiseach'
p535
(lp536
S'taoiseach'
p537
asS'militaryRank'
p538
(lp539
S'military'
p540
aS'rank'
p541
asS'doctoralAdvisor'
p542
(lp543
S'doctoral'
p544
aS'advisor'
p545
asS'birthPlace'
p546
(lp547
S'birth'
p548
aS'place'
p549
asS'currentRank'
p550
(lp551
S'current'
p552
aS'rank'
p553
asS'club'
p554
(lp555
S'club'
p556
asS'imdbId'
p557
(lp558
S'imdb'
p559
aS'id'
p560
asS'appointer'
p561
(lp562
S'appointer'
p563
asS'royalAnthem'
p564
(lp565
S'royal'
p566
aS'anthem'
p567
asS'award'
p568
(lp569
S'award'
p570
asS'prospectLeague'
p571
(lp572
S'prospect'
p573
aS'league'
p574
asS'championships'
p575
(lp576
S'championships'
p577
asS'child'
p578
(lp579
S'child'
p580
asS'billed'
p581
(lp582
S'billed'
p583
asS'institution'
p584
(lp585
S'institution'
p586
asS'firstWin'
p587
(lp588
S'first'
p589
aS'win'
p590
asS'significantDesign'
p591
(lp592
S'significant'
p593
aS'design'
p594
asS'type'
p595
(lp596
S'type'
p597
asS'formerPartner'
p598
(lp599
S'former'
p600
aS'partner'
p601
asS'canonizedDate'
p602
(lp603
S'canonized'
p604
aS'date'
p605
asS'militaryCommand'
p606
(lp607
S'military'
p608
aS'command'
p609
asS'lastWin'
p610
(lp611
S'last'
p612
aS'win'
p613
asS'era'
p614
(lp615
S'era'
p616
asS'country'
p617
(lp618
S'country'
p619
asS'voice'
p620
(lp621
S'voice'
p622
asS'personFunction'
p623
(lp624
S'person'
p625
aS'function'
p626
asS'veneratedIn'
p627
(lp628
S'venerated'
p629
aS'in'
p630
asS'electionMajority'
p631
(lp632
S'election'
p633
aS'majority'
p634
asS'citizenship'
p635
(lp636
S'citizenship'
p637
asS'nominee'
p638
(lp639
S'nominee'
p640
asS'prospectTeam'
p641
(lp642
S'prospect'
p643
aS'team'
p644
asS'abstract'
p645
(lp646
S'abstract'
p647
asS'draftYear'
p648
(lp649
S'draft'
p650
aS'year'
p651
asS'significantProject'
p652
(lp653
S'significant'
p654
aS'project'
p655
asS'bestFinish'
p656
(lp657
S'best'
p658
aS'finish'
p659
asS'partner'
p660
(lp661
S'partner'
p662
asS'education'
p663
(lp664
S'education'
p665
asS'deathYear'
p666
(lp667
S'death'
p668
aS'year'
p669
asS'species'
p670
(lp671
S'species'
p672
asS'ethnicity'
p673
(lp674
S'ethnicity'
p675
asS'notableWork'
p676
(lp677
S'notable'
p678
aS'work'
p679
asS'influenced'
p680
(lp681
S'influenced'
p682
asS'agency'
p683
(lp684
S'agency'
p685
asS'commonName'
p686
(lp687
S'common'
p688
aS'name'
p689
asS'militaryUnit'
p690
(lp691
S'military'
p692
aS'unit'
p693
asS'field'
p694
(lp695
S'field'
p696
asS'speaker'
p697
(lp698
S'speaker'
p699
asS'incumbent'
p700
(lp701
S'incumbent'
p702
asS'party'
p703
(lp704
S'party'
p705
asS'pseudonym'
p706
(lp707
S'pseudonym'
p708
asS'academicAdvisor'
p709
(lp710
S'academic'
p711
aS'advisor'
p712
asS'picture'
p713
(lp714
S'picture'
p715
asS'beatifiedDate'
p716
(lp717
S'beatified'
p718
aS'date'
p719
asS'associatedBand'
p720
(lp721
S'associated'
p722
aS'band'
p723
asS'depictionDescription'
p724
(lp725
S'depiction'
p726
aS'description'
p727
asS'currentRecord'
p728
(lp729
S'current'
p730
aS'record'
p731
asS'restingPlace'
p732
(lp733
S'resting'
p734
aS'place'
p735
asS'primeMinister'
p736
(lp737
S'prime'
p738
aS'minister'
p739
asS'president'
p740
(lp741
S'president'
p742
asS'highschool'
p743
(lp744
S'highschool'
p745
asS'deathDate'
p746
(lp747
S'death'
p748
aS'date'
p749
asS'centuryBreaks'
p750
(lp751
S'century'
p752
aS'breaks'
p753
asS'associatedAct'
p754
(lp755
S'associated'
p756
aS'act'
p757
asS'salary'
p758
(lp759
S'salary'
p760
asS'majorShrine'
p761
(lp762
S'major'
p763
aS'shrine'
p764
asS'wins'
p765
(lp766
S'wins'
p767
asS'alias'
p768
(lp769
S'alias'
p770
asS'throwingSide'
p771
(lp772
S'throwing'
p773
aS'side'
p774
asS'callSign'
p775
(lp776
S'call'
p777
aS'sign'
p778
asS'squadNumber'
p779
(lp780
S'squad'
p781
aS'number'
p782
asS'notableIdea'
p783
(lp784
S'notable'
p785
aS'idea'
p786
as.